BL51 BANKED LINKER/LOCATER V6.22.4.0                                                    11/12/2025  11:54:35  PAGE 1


BL51 BANKED LINKER/LOCATER V6.22.4.0, INVOKED BY:
C:\USERS\ARGHA\DESKTOP\TESTING\C51\BIN\BL51.EXE .\Objects\test.obj TO .\Objects\testing PRINT (.\Listings\testing.m51) R
>> AMSIZE (256)


INPUT MODULES INCLUDED:
  .\Objects\test.obj (TEST)


LINK MAP OF MODULE:  .\Objects\testing (TEST)


            TYPE    BASE      LENGTH    RELOCATION   SEGMENT NAME
            -----------------------------------------------------

            * * * * * * *   D A T A   M E M O R Y   * * * * * * *
            REG     0000H     0008H     ABSOLUTE     "REG BANK 0"

            * * * * * * *   C O D E   M E M O R Y   * * * * * * *
            CODE    0000H     0092H     ABSOLUTE     



SYMBOL TABLE OF MODULE:  .\Objects\testing (TEST)

  VALUE           TYPE          NAME
  ----------------------------------

  -------         MODULE        TEST
  B:00A0H.0       SYMBOL        AMB_IND
  C:0064H         SYMBOL        AMB_ISR
  B:0090H.2       SYMBOL        A_GRN
  B:0090H.0       SYMBOL        A_RED
  B:0090H.1       SYMBOL        A_YEL
  B:0090H.5       SYMBOL        B_GRN
  B:0090H.3       SYMBOL        B_RED
  B:0090H.4       SYMBOL        B_YEL
  C:0084H         SYMBOL        D10_LOOP
  C:007DH         SYMBOL        D3_LOOP
  C:008DH         SYMBOL        D50_INNER
  C:008BH         SYMBOL        D50_OUTER
  C:0082H         SYMBOL        DELAY10S
  C:007BH         SYMBOL        DELAY3S
  C:0089H         SYMBOL        DELAY50MS
  D:00A8H         SYMBOL        IE
  C:0038H         SYMBOL        MAIN_LOOP
  D:0090H         SYMBOL        P1
  D:00A0H         SYMBOL        P2
  C:0030H         SYMBOL        START
  D:0088H         SYMBOL        TCON
  C:0000H         LINE#         8
  C:0003H         LINE#         12
  C:0030H         LINE#         37
  C:0033H         LINE#         38
  C:0036H         LINE#         39
  C:0038H         LINE#         44
  C:003AH         LINE#         45
  C:003CH         LINE#         46
BL51 BANKED LINKER/LOCATER V6.22.4.0                                                  11/12/2025  11:54:35  PAGE 2


  C:003EH         LINE#         47
  C:0040H         LINE#         48
  C:0042H         LINE#         49
  C:0044H         LINE#         50
  C:0046H         LINE#         51
  C:0048H         LINE#         54
  C:004AH         LINE#         55
  C:004CH         LINE#         56
  C:004EH         LINE#         57
  C:0050H         LINE#         58
  C:0052H         LINE#         61
  C:0054H         LINE#         62
  C:0056H         LINE#         63
  C:0058H         LINE#         66
  C:005AH         LINE#         67
  C:005CH         LINE#         68
  C:005EH         LINE#         69
  C:0060H         LINE#         70
  C:0062H         LINE#         72
  C:0064H         LINE#         78
  C:0066H         LINE#         79
  C:0068H         LINE#         80
  C:006AH         LINE#         81
  C:006CH         LINE#         82
  C:006EH         LINE#         83
  C:0070H         LINE#         84
  C:0072H         LINE#         86
  C:0074H         LINE#         88
  C:0076H         LINE#         89
  C:0078H         LINE#         90
  C:007AH         LINE#         91
  C:007BH         LINE#         99
  C:007DH         LINE#         101
  C:007FH         LINE#         102
  C:0081H         LINE#         103
  C:0082H         LINE#         107
  C:0084H         LINE#         109
  C:0086H         LINE#         110
  C:0088H         LINE#         111
  C:0089H         LINE#         115
  C:008BH         LINE#         117
  C:008DH         LINE#         119
  C:008FH         LINE#         120
  C:0091H         LINE#         121
  -------         ENDMOD        TEST

******************************************************************************
* RESTRICTED VERSION WITH 0800H BYTE CODE SIZE LIMIT; USED: 0068H BYTE ( 5%) *
******************************************************************************

Program Size: data=8.0 xdata=0 code=146
LINK/LOCATE RUN COMPLETE.  0 WARNING(S),  0 ERROR(S)
